; Function Attrs: mustprogress uwtable
define dso_local void @_ZN4base15DictionaryValue9SetDoubleENS_16BasicStringPieceINSt7__cxx1112basic_stringIcSt11char_traitsIcESaIcEEEEEd(ptr noundef nonnull align 8 dereferenceable(64) %this, ptr %path.coerce0, i64 %path.coerce1, double noundef %in_value) local_unnamed_addr #3 align 2 personality ptr @__gxx_personality_v0 {
invoke.cont:
  %agg.tmp2.i = alloca %"class.std::unique_ptr", align 8
  %call = tail call noalias noundef nonnull dereferenceable(24) ptr @_Znwm(i64 noundef 24) #25
  %type_.i.i = getelementptr inbounds i8, ptr %call, i64 8
  store i32 3, ptr %type_.i.i, align 8
  store ptr getelementptr inbounds ({ [17 x ptr] }, ptr @_ZTVN4base16FundamentalValueE, i64 0, i32 0, i64 2), ptr %call, align 8
  %0 = tail call double @llvm.fabs.f64(double %in_value)
  %1 = fcmp ueq double %0, 0x7FF0000000000000
  %storemerge.i = select i1 %1, double 0.000000e+00, double %in_value
  %2 = getelementptr inbounds i8, ptr %call, i64 16
  store double %storemerge.i, ptr %2, align 8
  call void @llvm.lifetime.start.p0(i64 8, ptr nonnull %agg.tmp2.i)
  store ptr %call, ptr %agg.tmp2.i, align 8, !alias.scope !35
  invoke void @_ZN4base15DictionaryValue3SetENS_16BasicStringPieceINSt7__cxx1112basic_stringIcSt11char_traitsIcESaIcEEEEESt10unique_ptrINS_5ValueESt14default_deleteISA_EE(ptr noundef nonnull align 8 dereferenceable(64) %this, ptr %path.coerce0, i64 %path.coerce1, ptr noundef nonnull %agg.tmp2.i)
          to label %invoke.cont.i unwind label %lpad.i

invoke.cont.i:                                    ; preds = %invoke.cont
  %3 = load ptr, ptr %agg.tmp2.i, align 8
  %cmp.not.i.i = icmp eq ptr %3, null
  br i1 %cmp.not.i.i, label %_ZN4base15DictionaryValue3SetENS_16BasicStringPieceINSt7__cxx1112basic_stringIcSt11char_traitsIcESaIcEEEEEPNS_5ValueE.exit, label %_ZNKSt14default_deleteIN4base5ValueEEclEPS1_.exit.i.i

_ZNKSt14default_deleteIN4base5ValueEEclEPS1_.exit.i.i: ; preds = %invoke.cont.i
  %vtable.i.i.i = load ptr, ptr %3, align 8
  %vfn.i.i.i = getelementptr inbounds i8, ptr %vtable.i.i.i, i64 8
  %4 = load ptr, ptr %vfn.i.i.i, align 8
  tail call void %4(ptr noundef nonnull align 8 dereferenceable(12) %3) #26
  br label %_ZN4base15DictionaryValue3SetENS_16BasicStringPieceINSt7__cxx1112basic_stringIcSt11char_traitsIcESaIcEEEEEPNS_5ValueE.exit

lpad.i:                                           ; preds = %invoke.cont
  %5 = landingpad { ptr, i32 }
          cleanup
  %6 = load ptr, ptr %agg.tmp2.i, align 8
  %cmp.not.i1.i = icmp eq ptr %6, null
  br i1 %cmp.not.i1.i, label %_ZNSt10unique_ptrIN4base5ValueESt14default_deleteIS1_EED2Ev.exit5.i, label %_ZNKSt14default_deleteIN4base5ValueEEclEPS1_.exit.i2.i

_ZNKSt14default_deleteIN4base5ValueEEclEPS1_.exit.i2.i: ; preds = %lpad.i
  %vtable.i.i3.i = load ptr, ptr %6, align 8
  %vfn.i.i4.i = getelementptr inbounds i8, ptr %vtable.i.i3.i, i64 8
  %7 = load ptr, ptr %vfn.i.i4.i, align 8
  tail call void %7(ptr noundef nonnull align 8 dereferenceable(12) %6) #26
  br label %_ZNSt10unique_ptrIN4base5ValueESt14default_deleteIS1_EED2Ev.exit5.i

_ZNSt10unique_ptrIN4base5ValueESt14default_deleteIS1_EED2Ev.exit5.i: ; preds = %_ZNKSt14default_deleteIN4base5ValueEEclEPS1_.exit.i2.i, %lpad.i
  resume { ptr, i32 } %5

_ZN4base15DictionaryValue3SetENS_16BasicStringPieceINSt7__cxx1112basic_stringIcSt11char_traitsIcESaIcEEEEEPNS_5ValueE.exit: ; preds = %invoke.cont.i, %_ZNKSt14default_deleteIN4base5ValueEEclEPS1_.exit.i.i
  call void @llvm.lifetime.end.p0(i64 8, ptr nonnull %agg.tmp2.i)
  ret void
}